; Function Attrs: nounwind uwtable
define internal fastcc void @do_git_deflate_init(ptr noundef initializes((0, 160)) %0, i32 noundef %1, i32 noundef range(i32 -15, 32) %2) unnamed_addr #0 {
  %4 = getelementptr inbounds nuw i8, ptr %0, i64 144
  %5 = getelementptr inbounds nuw i8, ptr %0, i64 152
  %6 = getelementptr inbounds nuw i8, ptr %0, i64 24
  %7 = getelementptr inbounds nuw i8, ptr %0, i64 128
  %8 = getelementptr inbounds nuw i8, ptr %0, i64 136
  %9 = getelementptr inbounds nuw i8, ptr %0, i64 40
  %10 = getelementptr inbounds nuw i8, ptr %0, i64 112
  %11 = getelementptr inbounds nuw i8, ptr %0, i64 120
  tail call void @llvm.memset.p0.i64(ptr noundef nonnull align 8 dereferenceable(160) %0, i8 0, i64 160, i1 false)
  %12 = tail call i32 @deflateInit2_(ptr noundef nonnull %0, i32 noundef %1, i32 noundef 8, i32 noundef %2, i32 noundef 8, i32 noundef 0, ptr noundef nonnull @.str, i32 noundef 112) #6
  %13 = load ptr, ptr %0, align 8, !tbaa !14
  %14 = load ptr, ptr %4, align 8, !tbaa !4
  %15 = ptrtoint ptr %13 to i64
  %16 = ptrtoint ptr %14 to i64
  %17 = sub i64 %15, %16
  %18 = load ptr, ptr %6, align 8, !tbaa !16
  %19 = load ptr, ptr %5, align 8, !tbaa !15
  %20 = ptrtoint ptr %18 to i64
  %21 = ptrtoint ptr %19 to i64
  %22 = sub i64 %20, %21
  %23 = load i64, ptr %9, align 8, !tbaa !20
  %24 = load i64, ptr %8, align 8, !tbaa !19
  %25 = add i64 %24, %22
  %.not.i = icmp eq i64 %23, %25
  br i1 %.not.i, label %27, label %26

26:                                               ; preds = %3
  tail call void (ptr, i32, ptr, ...) @BUG_fl(ptr noundef nonnull @.str.11, i32 noundef 56, ptr noundef nonnull @.str.12) #7
  unreachable

27:                                               ; preds = %3
  %28 = getelementptr inbounds nuw i8, ptr %0, i64 16
  %29 = load i64, ptr %28, align 8, !tbaa !18
  %30 = load i64, ptr %7, align 8, !tbaa !17
  %31 = add i64 %30, %17
  %.not21.i = icmp eq i64 %29, %31
  br i1 %.not21.i, label %zlib_post_call.exit, label %32

32:                                               ; preds = %27
  tail call void (ptr, i32, ptr, ...) @BUG_fl(ptr noundef nonnull @.str.11, i32 noundef 58, ptr noundef nonnull @.str.13) #7
  unreachable

zlib_post_call.exit:                              ; preds = %27
  store i64 %23, ptr %8, align 8, !tbaa !19
  store i64 %29, ptr %7, align 8, !tbaa !17
  store ptr %13, ptr %4, align 8, !tbaa !4
  store ptr %18, ptr %5, align 8, !tbaa !15
  %33 = load i64, ptr %10, align 8, !tbaa !21
  %34 = sub i64 %33, %17
  store i64 %34, ptr %10, align 8, !tbaa !21
  %35 = load i64, ptr %11, align 8, !tbaa !23
  %36 = sub i64 %35, %22
  store i64 %36, ptr %11, align 8, !tbaa !23
  %37 = icmp eq i32 %12, 0
  br i1 %37, label %38, label %39

38:                                               ; preds = %zlib_post_call.exit
  ret void

39:                                               ; preds = %zlib_post_call.exit
  %40 = tail call fastcc ptr @zerr_to_string(i32 noundef %12)
  %41 = getelementptr inbounds nuw i8, ptr %0, i64 48
  %42 = load ptr, ptr %41, align 8, !tbaa !25
  %.not = icmp eq ptr %42, null
  %spec.select = select i1 %.not, ptr @.str.2, ptr %42
  tail call void (ptr, ...) @die(ptr noundef nonnull @.str.20, ptr noundef nonnull %40, ptr noundef nonnull %spec.select) #7
  unreachable
}